; ModuleID = '60/1735.c'
source_filename = "60/1735.c"
target datalayout = "e-m:e-p270:32:32-p271:32:32-p272:64:64-i64:64-f80:128-n8:16:32:64-S128"
target triple = "x86_64-pc-linux-gnu"

@.str = private unnamed_addr constant [3 x i8] c"%d\00", align 1
@.str.1 = private unnamed_addr constant [7 x i8] c"\0Aempty\00", align 1
@.str.2 = private unnamed_addr constant [7 x i8] c"\0A%d %d\00", align 1

; Function Attrs: noinline nounwind uwtable
define dso_local i32 @prime(i32 %0) #0 {
  %2 = alloca i32, align 4
  %3 = alloca i32, align 4
  %4 = alloca i32, align 4
  %5 = alloca i32, align 4
  store i32 %0, i32* %3, align 4
  %6 = load i32, i32* %3, align 4
  %7 = icmp eq i32 %6, 2
  br i1 %7, label %8, label %9

8:                                                ; preds = %1
  store i32 1, i32* %2, align 4
  br label %26

9:                                                ; preds = %1
  store i32 1, i32* %4, align 4
  store i32 2, i32* %5, align 4
  br label %10

10:                                               ; preds = %21, %9
  %11 = load i32, i32* %5, align 4
  %12 = load i32, i32* %3, align 4
  %13 = icmp slt i32 %11, %12
  br i1 %13, label %14, label %24

14:                                               ; preds = %10
  %15 = load i32, i32* %3, align 4
  %16 = load i32, i32* %5, align 4
  %17 = srem i32 %15, %16
  %18 = icmp eq i32 %17, 0
  br i1 %18, label %19, label %20

19:                                               ; preds = %14
  store i32 0, i32* %4, align 4
  br label %24

20:                                               ; preds = %14
  br label %21

21:                                               ; preds = %20
  %22 = load i32, i32* %5, align 4
  %23 = add nsw i32 %22, 1
  store i32 %23, i32* %5, align 4
  br label %10

24:                                               ; preds = %19, %10
  %25 = load i32, i32* %4, align 4
  store i32 %25, i32* %2, align 4
  br label %26

26:                                               ; preds = %24, %8
  %27 = load i32, i32* %2, align 4
  ret i32 %27
}

; Function Attrs: noinline nounwind uwtable
define dso_local i32 @main() #0 {
  %1 = alloca i32, align 4
  %2 = alloca i32, align 4
  %3 = alloca [10000 x i32], align 16
  %4 = alloca i32, align 4
  %5 = alloca i32, align 4
  store i32 0, i32* %1, align 4
  %6 = call i32 (i8*, ...) @__isoc99_scanf(i8* getelementptr inbounds ([3 x i8], [3 x i8]* @.str, i64 0, i64 0), i32* %2)
  %7 = load i32, i32* %2, align 4
  %8 = icmp eq i32 %7, 1
  br i1 %8, label %18, label %9

9:                                                ; preds = %0
  %10 = load i32, i32* %2, align 4
  %11 = icmp eq i32 %10, 2
  br i1 %11, label %18, label %12

12:                                               ; preds = %9
  %13 = load i32, i32* %2, align 4
  %14 = icmp eq i32 %13, 3
  br i1 %14, label %18, label %15

15:                                               ; preds = %12
  %16 = load i32, i32* %2, align 4
  %17 = icmp eq i32 %16, 4
  br i1 %17, label %18, label %20

18:                                               ; preds = %15, %12, %9, %0
  %19 = call i32 (i8*, ...) @printf(i8* getelementptr inbounds ([7 x i8], [7 x i8]* @.str.1, i64 0, i64 0))
  br label %20

20:                                               ; preds = %18, %15
  %21 = bitcast [10000 x i32]* %3 to i8*
  call void @llvm.memset.p0i8.i64(i8* align 16 %21, i8 0, i64 40000, i1 false)
  %22 = bitcast i8* %21 to <{ i32, i32, i32, [9997 x i32] }>*
  %23 = getelementptr inbounds <{ i32, i32, i32, [9997 x i32] }>, <{ i32, i32, i32, [9997 x i32] }>* %22, i32 0, i32 2
  store i32 1, i32* %23, align 8
  store i32 2, i32* %4, align 4
  br label %24

24:                                               ; preds = %37, %20
  %25 = load i32, i32* %4, align 4
  %26 = load i32, i32* %2, align 4
  %27 = icmp sle i32 %25, %26
  br i1 %27, label %28, label %40

28:                                               ; preds = %24
  %29 = load i32, i32* %4, align 4
  %30 = call i32 @prime(i32 %29)
  %31 = icmp eq i32 %30, 1
  br i1 %31, label %32, label %36

32:                                               ; preds = %28
  %33 = load i32, i32* %4, align 4
  %34 = sext i32 %33 to i64
  %35 = getelementptr inbounds [10000 x i32], [10000 x i32]* %3, i64 0, i64 %34
  store i32 1, i32* %35, align 4
  br label %36

36:                                               ; preds = %32, %28
  br label %37

37:                                               ; preds = %36
  %38 = load i32, i32* %4, align 4
  %39 = add nsw i32 %38, 1
  store i32 %39, i32* %4, align 4
  br label %24

40:                                               ; preds = %24
  store i32 0, i32* %5, align 4
  store i32 2, i32* %4, align 4
  br label %41

41:                                               ; preds = %65, %40
  %42 = load i32, i32* %4, align 4
  %43 = load i32, i32* %2, align 4
  %44 = sub nsw i32 %43, 2
  %45 = icmp sle i32 %42, %44
  br i1 %45, label %46, label %68

46:                                               ; preds = %41
  %47 = load i32, i32* %4, align 4
  %48 = sext i32 %47 to i64
  %49 = getelementptr inbounds [10000 x i32], [10000 x i32]* %3, i64 0, i64 %48
  %50 = load i32, i32* %49, align 4
  %51 = icmp eq i32 %50, 1
  br i1 %51, label %52, label %64

52:                                               ; preds = %46
  %53 = load i32, i32* %4, align 4
  %54 = add nsw i32 %53, 2
  %55 = sext i32 %54 to i64
  %56 = getelementptr inbounds [10000 x i32], [10000 x i32]* %3, i64 0, i64 %55
  %57 = load i32, i32* %56, align 4
  %58 = icmp eq i32 %57, 1
  br i1 %58, label %59, label %64

59:                                               ; preds = %52
  %60 = load i32, i32* %4, align 4
  %61 = load i32, i32* %4, align 4
  %62 = add nsw i32 %61, 2
  %63 = call i32 (i8*, ...) @printf(i8* getelementptr inbounds ([7 x i8], [7 x i8]* @.str.2, i64 0, i64 0), i32 %60, i32 %62)
  store i32 1, i32* %5, align 4
  br label %64

64:                                               ; preds = %59, %52, %46
  br label %65

65:                                               ; preds = %64
  %66 = load i32, i32* %4, align 4
  %67 = add nsw i32 %66, 1
  store i32 %67, i32* %4, align 4
  br label %41

68:                                               ; preds = %41
  ret i32 0
}

declare dso_local i32 @__isoc99_scanf(i8*, ...) #1

declare dso_local i32 @printf(i8*, ...) #1

; Function Attrs: argmemonly nounwind willreturn
declare void @llvm.memset.p0i8.i64(i8* nocapture writeonly, i8, i64, i1 immarg) #2


!llvm.module.flags = !{!0}
!llvm.ident = !{!1}

!0 = !{i32 1, !"wchar_size", i32 4}
!1 = !{!"clang version 10.0.0-4ubuntu1 "}
